target datalayout = "e-m:e-p270:32:32-p271:32:32-p272:64:64-i64:64-i128:128-f80:128-n8:16:32:64-S128"
target triple = "x86_64-pc-linux-gnu"

%"class.std::__cxx11::basic_string" = type { %"struct.std::__cxx11::basic_string<char>::_Alloc_hider", i64, %union.anon }
%"struct.std::__cxx11::basic_string<char>::_Alloc_hider" = type { ptr }
%union.anon = type { i64, [8 x i8] }
%"struct.rocksdb::TableProperties" = type { i64, i64, i64, i64, i64, i64, i64, i64, i64, i64, i64, i64, i64, i64, i64, i64, i64, i64, i64, i64, i64, i64, i64, i64, i64, i64, i64, i64, i64, %"class.std::__cxx11::basic_string", %"class.std::__cxx11::basic_string", %"class.std::__cxx11::basic_string", %"class.std::__cxx11::basic_string", %"class.std::__cxx11::basic_string", %"class.std::__cxx11::basic_string", %"class.std::__cxx11::basic_string", %"class.std::__cxx11::basic_string", %"class.std::__cxx11::basic_string", %"class.std::__cxx11::basic_string", %"class.std::__cxx11::basic_string", %"class.std::__cxx11::basic_string", %"class.std::map", %"class.std::map" }
%"class.std::map" = type { %"class.std::_Rb_tree" }
%"class.std::_Rb_tree" = type { %"struct.std::_Rb_tree<std::__cxx11::basic_string<char>, std::pair<const std::__cxx11::basic_string<char>, std::__cxx11::basic_string<char>>, std::_Select1st<std::pair<const std::__cxx11::basic_string<char>, std::__cxx11::basic_string<char>>>, std::less<std::__cxx11::basic_string<char>>>::_Rb_tree_impl" }
%"struct.std::_Rb_tree<std::__cxx11::basic_string<char>, std::pair<const std::__cxx11::basic_string<char>, std::__cxx11::basic_string<char>>, std::_Select1st<std::pair<const std::__cxx11::basic_string<char>, std::__cxx11::basic_string<char>>>, std::less<std::__cxx11::basic_string<char>>>::_Rb_tree_impl" = type { [8 x i8], %"struct.std::_Rb_tree_header" }
%"struct.std::_Rb_tree_header" = type { %"struct.std::_Rb_tree_node_base", i64 }
%"struct.std::_Rb_tree_node_base" = type { i32, ptr, ptr, ptr }

; Function Attrs: mustprogress nounwind uwtable
define void @_ZN7rocksdb15TableProperties3AddERKS0_(ptr noundef nonnull align 8 dereferenceable(712) %0, ptr noundef nonnull align 8 dereferenceable(712) %1) #4 align 2 {
  %3 = alloca ptr, align 8
  %4 = alloca ptr, align 8
  store ptr %0, ptr %3, align 8, !tbaa !10
  store ptr %1, ptr %4, align 8, !tbaa !10
  %5 = load ptr, ptr %3, align 8
  %6 = load ptr, ptr %4, align 8, !tbaa !10
  %7 = getelementptr inbounds nuw %"struct.rocksdb::TableProperties", ptr %6, i32 0, i32 1
  %8 = load i64, ptr %7, align 8, !tbaa !36
  %9 = getelementptr inbounds nuw %"struct.rocksdb::TableProperties", ptr %5, i32 0, i32 1
  %10 = load i64, ptr %9, align 8, !tbaa !36
  %11 = add i64 %10, %8
  store i64 %11, ptr %9, align 8, !tbaa !36
  %12 = load ptr, ptr %4, align 8, !tbaa !10
  %13 = getelementptr inbounds nuw %"struct.rocksdb::TableProperties", ptr %12, i32 0, i32 2
  %14 = load i64, ptr %13, align 8, !tbaa !37
  %15 = getelementptr inbounds nuw %"struct.rocksdb::TableProperties", ptr %5, i32 0, i32 2
  %16 = load i64, ptr %15, align 8, !tbaa !37
  %17 = add i64 %16, %14
  store i64 %17, ptr %15, align 8, !tbaa !37
  %18 = load ptr, ptr %4, align 8, !tbaa !10
  %19 = getelementptr inbounds nuw %"struct.rocksdb::TableProperties", ptr %18, i32 0, i32 3
  %20 = load i64, ptr %19, align 8, !tbaa !35
  %21 = getelementptr inbounds nuw %"struct.rocksdb::TableProperties", ptr %5, i32 0, i32 3
  %22 = load i64, ptr %21, align 8, !tbaa !35
  %23 = add i64 %22, %20
  store i64 %23, ptr %21, align 8, !tbaa !35
  %24 = load ptr, ptr %4, align 8, !tbaa !10
  %25 = getelementptr inbounds nuw %"struct.rocksdb::TableProperties", ptr %24, i32 0, i32 4
  %26 = load i64, ptr %25, align 8, !tbaa !90
  %27 = getelementptr inbounds nuw %"struct.rocksdb::TableProperties", ptr %5, i32 0, i32 4
  %28 = load i64, ptr %27, align 8, !tbaa !90
  %29 = add i64 %28, %26
  store i64 %29, ptr %27, align 8, !tbaa !90
  %30 = load ptr, ptr %4, align 8, !tbaa !10
  %31 = getelementptr inbounds nuw %"struct.rocksdb::TableProperties", ptr %30, i32 0, i32 5
  %32 = load i64, ptr %31, align 8, !tbaa !33
  %33 = getelementptr inbounds nuw %"struct.rocksdb::TableProperties", ptr %5, i32 0, i32 5
  %34 = load i64, ptr %33, align 8, !tbaa !33
  %35 = add i64 %34, %32
  store i64 %35, ptr %33, align 8, !tbaa !33
  %36 = load ptr, ptr %4, align 8, !tbaa !10
  %37 = getelementptr inbounds nuw %"struct.rocksdb::TableProperties", ptr %36, i32 0, i32 6
  %38 = load i64, ptr %37, align 8, !tbaa !34
  %39 = getelementptr inbounds nuw %"struct.rocksdb::TableProperties", ptr %5, i32 0, i32 6
  %40 = load i64, ptr %39, align 8, !tbaa !34
  %41 = add i64 %40, %38
  store i64 %41, ptr %39, align 8, !tbaa !34
  %42 = load ptr, ptr %4, align 8, !tbaa !10
  %43 = getelementptr inbounds nuw %"struct.rocksdb::TableProperties", ptr %42, i32 0, i32 7
  %44 = load i64, ptr %43, align 8, !tbaa !38
  %45 = getelementptr inbounds nuw %"struct.rocksdb::TableProperties", ptr %5, i32 0, i32 7
  %46 = load i64, ptr %45, align 8, !tbaa !38
  %47 = add i64 %46, %44
  store i64 %47, ptr %45, align 8, !tbaa !38
  %48 = load ptr, ptr %4, align 8, !tbaa !10
  %49 = getelementptr inbounds nuw %"struct.rocksdb::TableProperties", ptr %48, i32 0, i32 8
  %50 = load i64, ptr %49, align 8, !tbaa !29
  %51 = getelementptr inbounds nuw %"struct.rocksdb::TableProperties", ptr %5, i32 0, i32 8
  %52 = load i64, ptr %51, align 8, !tbaa !29
  %53 = add i64 %52, %50
  store i64 %53, ptr %51, align 8, !tbaa !29
  %54 = load ptr, ptr %4, align 8, !tbaa !10
  %55 = getelementptr inbounds nuw %"struct.rocksdb::TableProperties", ptr %54, i32 0, i32 9
  %56 = load i64, ptr %55, align 8, !tbaa !32
  %57 = getelementptr inbounds nuw %"struct.rocksdb::TableProperties", ptr %5, i32 0, i32 9
  %58 = load i64, ptr %57, align 8, !tbaa !32
  %59 = add i64 %58, %56
  store i64 %59, ptr %57, align 8, !tbaa !32
  %60 = load ptr, ptr %4, align 8, !tbaa !10
  %61 = getelementptr inbounds nuw %"struct.rocksdb::TableProperties", ptr %60, i32 0, i32 10
  %62 = load i64, ptr %61, align 8, !tbaa !91
  %63 = getelementptr inbounds nuw %"struct.rocksdb::TableProperties", ptr %5, i32 0, i32 10
  %64 = load i64, ptr %63, align 8, !tbaa !91
  %65 = add i64 %64, %62
  store i64 %65, ptr %63, align 8, !tbaa !91
  %66 = load ptr, ptr %4, align 8, !tbaa !10
  %67 = getelementptr inbounds nuw %"struct.rocksdb::TableProperties", ptr %66, i32 0, i32 11
  %68 = load i64, ptr %67, align 8, !tbaa !15
  %69 = getelementptr inbounds nuw %"struct.rocksdb::TableProperties", ptr %5, i32 0, i32 11
  %70 = load i64, ptr %69, align 8, !tbaa !15
  %71 = add i64 %70, %68
  store i64 %71, ptr %69, align 8, !tbaa !15
  %72 = load ptr, ptr %4, align 8, !tbaa !10
  %73 = getelementptr inbounds nuw %"struct.rocksdb::TableProperties", ptr %72, i32 0, i32 12
  %74 = load i64, ptr %73, align 8, !tbaa !92
  %75 = getelementptr inbounds nuw %"struct.rocksdb::TableProperties", ptr %5, i32 0, i32 12
  %76 = load i64, ptr %75, align 8, !tbaa !92
  %77 = add i64 %76, %74
  store i64 %77, ptr %75, align 8, !tbaa !92
  %78 = load ptr, ptr %4, align 8, !tbaa !10
  %79 = getelementptr inbounds nuw %"struct.rocksdb::TableProperties", ptr %78, i32 0, i32 13
  %80 = load i64, ptr %79, align 8, !tbaa !93
  %81 = getelementptr inbounds nuw %"struct.rocksdb::TableProperties", ptr %5, i32 0, i32 13
  %82 = load i64, ptr %81, align 8, !tbaa !93
  %83 = add i64 %82, %80
  store i64 %83, ptr %81, align 8, !tbaa !93
  %84 = load ptr, ptr %4, align 8, !tbaa !10
  %85 = getelementptr inbounds nuw %"struct.rocksdb::TableProperties", ptr %84, i32 0, i32 14
  %86 = load i64, ptr %85, align 8, !tbaa !94
  %87 = getelementptr inbounds nuw %"struct.rocksdb::TableProperties", ptr %5, i32 0, i32 14
  %88 = load i64, ptr %87, align 8, !tbaa !94
  %89 = add i64 %88, %86
  store i64 %89, ptr %87, align 8, !tbaa !94
  %90 = load ptr, ptr %4, align 8, !tbaa !10
  %91 = getelementptr inbounds nuw %"struct.rocksdb::TableProperties", ptr %90, i32 0, i32 15
  %92 = load i64, ptr %91, align 8, !tbaa !95
  %93 = getelementptr inbounds nuw %"struct.rocksdb::TableProperties", ptr %5, i32 0, i32 15
  %94 = load i64, ptr %93, align 8, !tbaa !95
  %95 = add i64 %94, %92
  store i64 %95, ptr %93, align 8, !tbaa !95
  %96 = load ptr, ptr %4, align 8, !tbaa !10
  %97 = getelementptr inbounds nuw %"struct.rocksdb::TableProperties", ptr %96, i32 0, i32 23
  %98 = load i64, ptr %97, align 8, !tbaa !96
  %99 = getelementptr inbounds nuw %"struct.rocksdb::TableProperties", ptr %5, i32 0, i32 23
  %100 = load i64, ptr %99, align 8, !tbaa !96
  %101 = add i64 %100, %98
  store i64 %101, ptr %99, align 8, !tbaa !96
  %102 = load ptr, ptr %4, align 8, !tbaa !10
  %103 = getelementptr inbounds nuw %"struct.rocksdb::TableProperties", ptr %102, i32 0, i32 24
  %104 = load i64, ptr %103, align 8, !tbaa !97
  %105 = getelementptr inbounds nuw %"struct.rocksdb::TableProperties", ptr %5, i32 0, i32 24
  %106 = load i64, ptr %105, align 8, !tbaa !97
  %107 = add i64 %106, %104
  store i64 %107, ptr %105, align 8, !tbaa !97
  ret void
}