; Function Attrs: mustprogress nofree norecurse nosync nounwind willreturn memory(argmem: readwrite) uwtable
define void @_ZN7rocksdb15TableProperties3AddERKS0_(ptr noundef nonnull align 8 captures(none) dereferenceable(712) %0, ptr noundef nonnull readonly align 8 captures(none) dereferenceable(712) %1) local_unnamed_addr #6 align 2 {
  %3 = getelementptr inbounds nuw i8, ptr %1, i64 8
  %4 = load i64, ptr %3, align 8, !tbaa !30
  %5 = getelementptr inbounds nuw i8, ptr %0, i64 8
  %6 = load i64, ptr %5, align 8, !tbaa !30
  %7 = add i64 %6, %4
  store i64 %7, ptr %5, align 8, !tbaa !30
  %8 = getelementptr inbounds nuw i8, ptr %1, i64 16
  %9 = load i64, ptr %8, align 8, !tbaa !31
  %10 = getelementptr inbounds nuw i8, ptr %0, i64 16
  %11 = load i64, ptr %10, align 8, !tbaa !31
  %12 = add i64 %11, %9
  store i64 %12, ptr %10, align 8, !tbaa !31
  %13 = getelementptr inbounds nuw i8, ptr %1, i64 24
  %14 = load i64, ptr %13, align 8, !tbaa !29
  %15 = getelementptr inbounds nuw i8, ptr %0, i64 24
  %16 = load i64, ptr %15, align 8, !tbaa !29
  %17 = add i64 %16, %14
  store i64 %17, ptr %15, align 8, !tbaa !29
  %18 = getelementptr inbounds nuw i8, ptr %1, i64 32
  %19 = load i64, ptr %18, align 8, !tbaa !84
  %20 = getelementptr inbounds nuw i8, ptr %0, i64 32
  %21 = load i64, ptr %20, align 8, !tbaa !84
  %22 = add i64 %21, %19
  store i64 %22, ptr %20, align 8, !tbaa !84
  %23 = getelementptr inbounds nuw i8, ptr %1, i64 40
  %24 = load i64, ptr %23, align 8, !tbaa !27
  %25 = getelementptr inbounds nuw i8, ptr %0, i64 40
  %26 = load i64, ptr %25, align 8, !tbaa !27
  %27 = add i64 %26, %24
  store i64 %27, ptr %25, align 8, !tbaa !27
  %28 = getelementptr inbounds nuw i8, ptr %1, i64 48
  %29 = load i64, ptr %28, align 8, !tbaa !28
  %30 = getelementptr inbounds nuw i8, ptr %0, i64 48
  %31 = load i64, ptr %30, align 8, !tbaa !28
  %32 = add i64 %31, %29
  store i64 %32, ptr %30, align 8, !tbaa !28
  %33 = getelementptr inbounds nuw i8, ptr %1, i64 56
  %34 = load i64, ptr %33, align 8, !tbaa !32
  %35 = getelementptr inbounds nuw i8, ptr %0, i64 56
  %36 = load i64, ptr %35, align 8, !tbaa !32
  %37 = add i64 %36, %34
  store i64 %37, ptr %35, align 8, !tbaa !32
  %38 = getelementptr inbounds nuw i8, ptr %1, i64 64
  %39 = load i64, ptr %38, align 8, !tbaa !85
  %40 = getelementptr inbounds nuw i8, ptr %0, i64 64
  %41 = load i64, ptr %40, align 8, !tbaa !85
  %42 = add i64 %41, %39
  store i64 %42, ptr %40, align 8, !tbaa !85
  %43 = getelementptr inbounds nuw i8, ptr %1, i64 72
  %44 = load i64, ptr %43, align 8, !tbaa !86
  %45 = getelementptr inbounds nuw i8, ptr %0, i64 72
  %46 = load i64, ptr %45, align 8, !tbaa !86
  %47 = add i64 %46, %44
  store i64 %47, ptr %45, align 8, !tbaa !86
  %48 = getelementptr inbounds nuw i8, ptr %1, i64 80
  %49 = load i64, ptr %48, align 8, !tbaa !87
  %50 = getelementptr inbounds nuw i8, ptr %0, i64 80
  %51 = load i64, ptr %50, align 8, !tbaa !87
  %52 = add i64 %51, %49
  store i64 %52, ptr %50, align 8, !tbaa !87
  %53 = getelementptr inbounds nuw i8, ptr %1, i64 88
  %54 = load i64, ptr %53, align 8, !tbaa !16
  %55 = getelementptr inbounds nuw i8, ptr %0, i64 88
  %56 = load i64, ptr %55, align 8, !tbaa !16
  %57 = add i64 %56, %54
  store i64 %57, ptr %55, align 8, !tbaa !16
  %58 = getelementptr inbounds nuw i8, ptr %1, i64 96
  %59 = load i64, ptr %58, align 8, !tbaa !88
  %60 = getelementptr inbounds nuw i8, ptr %0, i64 96
  %61 = load i64, ptr %60, align 8, !tbaa !88
  %62 = add i64 %61, %59
  store i64 %62, ptr %60, align 8, !tbaa !88
  %63 = getelementptr inbounds nuw i8, ptr %1, i64 104
  %64 = load i64, ptr %63, align 8, !tbaa !89
  %65 = getelementptr inbounds nuw i8, ptr %0, i64 104
  %66 = load i64, ptr %65, align 8, !tbaa !89
  %67 = add i64 %66, %64
  store i64 %67, ptr %65, align 8, !tbaa !89
  %68 = getelementptr inbounds nuw i8, ptr %1, i64 112
  %69 = load i64, ptr %68, align 8, !tbaa !90
  %70 = getelementptr inbounds nuw i8, ptr %0, i64 112
  %71 = load i64, ptr %70, align 8, !tbaa !90
  %72 = add i64 %71, %69
  store i64 %72, ptr %70, align 8, !tbaa !90
  %73 = getelementptr inbounds nuw i8, ptr %1, i64 120
  %74 = load i64, ptr %73, align 8, !tbaa !91
  %75 = getelementptr inbounds nuw i8, ptr %0, i64 120
  %76 = load i64, ptr %75, align 8, !tbaa !91
  %77 = add i64 %76, %74
  store i64 %77, ptr %75, align 8, !tbaa !91
  %78 = getelementptr inbounds nuw i8, ptr %1, i64 184
  %79 = load i64, ptr %78, align 8, !tbaa !92
  %80 = getelementptr inbounds nuw i8, ptr %0, i64 184
  %81 = load i64, ptr %80, align 8, !tbaa !92
  %82 = add i64 %81, %79
  store i64 %82, ptr %80, align 8, !tbaa !92
  %83 = getelementptr inbounds nuw i8, ptr %1, i64 192
  %84 = load i64, ptr %83, align 8, !tbaa !93
  %85 = getelementptr inbounds nuw i8, ptr %0, i64 192
  %86 = load i64, ptr %85, align 8, !tbaa !93
  %87 = add i64 %86, %84
  store i64 %87, ptr %85, align 8, !tbaa !93
  ret void
}